; ModuleID = '60/371.c'
source_filename = "60/371.c"
target datalayout = "e-m:e-p270:32:32-p271:32:32-p272:64:64-i64:64-f80:128-n8:16:32:64-S128"
target triple = "x86_64-pc-linux-gnu"

@.str = private unnamed_addr constant [3 x i8] c"%d\00", align 1
@.str.1 = private unnamed_addr constant [7 x i8] c"%d %d\0A\00", align 1
@.str.2 = private unnamed_addr constant [6 x i8] c"empty\00", align 1
@.str.3 = private unnamed_addr constant [2 x i8] c"^\00", align 1

; Function Attrs: noinline nounwind uwtable
define dso_local i32 @find(i32 %0) #0 {
  %2 = alloca i32, align 4
  %3 = alloca i32, align 4
  %4 = alloca i32, align 4
  store i32 %0, i32* %3, align 4
  store i32 2, i32* %4, align 4
  br label %5

5:                                                ; preds = %19, %1
  %6 = load i32, i32* %4, align 4
  %7 = sitofp i32 %6 to double
  %8 = load i32, i32* %3, align 4
  %9 = sitofp i32 %8 to double
  %10 = call double @sqrt(double %9) #4
  %11 = fcmp ole double %7, %10
  br i1 %11, label %12, label %22

12:                                               ; preds = %5
  %13 = load i32, i32* %3, align 4
  %14 = load i32, i32* %4, align 4
  %15 = srem i32 %13, %14
  %16 = icmp eq i32 %15, 0
  br i1 %16, label %17, label %18

17:                                               ; preds = %12
  store i32 0, i32* %2, align 4
  br label %23

18:                                               ; preds = %12
  br label %19

19:                                               ; preds = %18
  %20 = load i32, i32* %4, align 4
  %21 = add nsw i32 %20, 1
  store i32 %21, i32* %4, align 4
  br label %5

22:                                               ; preds = %5
  store i32 1, i32* %2, align 4
  br label %23

23:                                               ; preds = %22, %17
  %24 = load i32, i32* %2, align 4
  ret i32 %24
}

; Function Attrs: nounwind
declare dso_local double @sqrt(double) #1

; Function Attrs: noinline nounwind uwtable
define dso_local i32 @main() #0 {
  %1 = alloca i32, align 4
  %2 = alloca [1000000 x i32], align 16
  %3 = alloca i32, align 4
  %4 = alloca i32, align 4
  %5 = alloca i32, align 4
  %6 = alloca i32, align 4
  %7 = alloca i32, align 4
  store i32 0, i32* %1, align 4
  store i32 0, i32* %4, align 4
  store i32 0, i32* %6, align 4
  store i32 1, i32* %7, align 4
  %8 = getelementptr inbounds [1000000 x i32], [1000000 x i32]* %2, i64 0, i64 0
  %9 = bitcast i32* %8 to i8*
  call void @llvm.memset.p0i8.i64(i8* align 16 %9, i8 0, i64 4000000, i1 false)
  %10 = call i32 (i8*, ...) @__isoc99_scanf(i8* getelementptr inbounds ([3 x i8], [3 x i8]* @.str, i64 0, i64 0), i32* %5)
  store i32 1, i32* %3, align 4
  br label %11

11:                                               ; preds = %26, %0
  %12 = load i32, i32* %3, align 4
  %13 = load i32, i32* %5, align 4
  %14 = icmp sle i32 %12, %13
  br i1 %14, label %15, label %29

15:                                               ; preds = %11
  %16 = load i32, i32* %3, align 4
  %17 = call i32 @find(i32 %16)
  %18 = icmp ne i32 %17, 0
  br i1 %18, label %19, label %25

19:                                               ; preds = %15
  %20 = load i32, i32* %3, align 4
  %21 = load i32, i32* %4, align 4
  %22 = add nsw i32 %21, 1
  store i32 %22, i32* %4, align 4
  %23 = sext i32 %21 to i64
  %24 = getelementptr inbounds [1000000 x i32], [1000000 x i32]* %2, i64 0, i64 %23
  store i32 %20, i32* %24, align 4
  br label %25

25:                                               ; preds = %19, %15
  br label %26

26:                                               ; preds = %25
  %27 = load i32, i32* %3, align 4
  %28 = add nsw i32 %27, 1
  store i32 %28, i32* %3, align 4
  br label %11

29:                                               ; preds = %11
  store i32 0, i32* %3, align 4
  br label %30

30:                                               ; preds = %60, %29
  %31 = load i32, i32* %3, align 4
  %32 = load i32, i32* %4, align 4
  %33 = icmp slt i32 %31, %32
  br i1 %33, label %34, label %63

34:                                               ; preds = %30
  %35 = load i32, i32* %3, align 4
  %36 = add nsw i32 %35, 1
  %37 = sext i32 %36 to i64
  %38 = getelementptr inbounds [1000000 x i32], [1000000 x i32]* %2, i64 0, i64 %37
  %39 = load i32, i32* %38, align 4
  %40 = load i32, i32* %3, align 4
  %41 = sext i32 %40 to i64
  %42 = getelementptr inbounds [1000000 x i32], [1000000 x i32]* %2, i64 0, i64 %41
  %43 = load i32, i32* %42, align 4
  %44 = sub nsw i32 %39, %43
  %45 = icmp eq i32 %44, 2
  br i1 %45, label %46, label %59

46:                                               ; preds = %34
  %47 = load i32, i32* %3, align 4
  %48 = sext i32 %47 to i64
  %49 = getelementptr inbounds [1000000 x i32], [1000000 x i32]* %2, i64 0, i64 %48
  %50 = load i32, i32* %49, align 4
  %51 = load i32, i32* %3, align 4
  %52 = add nsw i32 %51, 1
  %53 = sext i32 %52 to i64
  %54 = getelementptr inbounds [1000000 x i32], [1000000 x i32]* %2, i64 0, i64 %53
  %55 = load i32, i32* %54, align 4
  %56 = call i32 (i8*, ...) @printf(i8* getelementptr inbounds ([7 x i8], [7 x i8]* @.str.1, i64 0, i64 0), i32 %50, i32 %55)
  %57 = load i32, i32* %6, align 4
  %58 = add nsw i32 %57, 1
  store i32 %58, i32* %6, align 4
  store i32 0, i32* %7, align 4
  br label %59

59:                                               ; preds = %46, %34
  br label %60

60:                                               ; preds = %59
  %61 = load i32, i32* %3, align 4
  %62 = add nsw i32 %61, 1
  store i32 %62, i32* %3, align 4
  br label %30

63:                                               ; preds = %30
  %64 = load i32, i32* %6, align 4
  %65 = icmp eq i32 %64, 0
  br i1 %65, label %66, label %68

66:                                               ; preds = %63
  %67 = call i32 (i8*, ...) @printf(i8* getelementptr inbounds ([6 x i8], [6 x i8]* @.str.2, i64 0, i64 0))
  store i32 0, i32* %7, align 4
  br label %68

68:                                               ; preds = %66, %63
  %69 = load i32, i32* %7, align 4
  %70 = icmp ne i32 %69, 0
  br i1 %70, label %71, label %73

71:                                               ; preds = %68
  %72 = call i32 (i8*, ...) @printf(i8* getelementptr inbounds ([2 x i8], [2 x i8]* @.str.3, i64 0, i64 0))
  br label %73

73:                                               ; preds = %71, %68
  ret i32 0
}

; Function Attrs: argmemonly nounwind willreturn
declare void @llvm.memset.p0i8.i64(i8* nocapture writeonly, i8, i64, i1 immarg) #2

declare dso_local i32 @__isoc99_scanf(i8*, ...) #3

declare dso_local i32 @printf(i8*, ...) #3


!llvm.module.flags = !{!0}
!llvm.ident = !{!1}

!0 = !{i32 1, !"wchar_size", i32 4}
!1 = !{!"clang version 10.0.0-4ubuntu1 "}
